target datalayout = "e-m:e-p270:32:32-p271:32:32-p272:64:64-i64:64-i128:128-f80:128-n8:16:32:64-S128"
target triple = "x86_64-pc-linux-gnu"

%struct.mbedtls_lmots_public_t = type { %struct.mbedtls_lmots_parameters_t, [32 x i8], i8 }
%struct.mbedtls_lmots_parameters_t = type { [16 x i8], [4 x i8], i32 }

; Function Attrs: alwaysinline nounwind uwtable
define internal i32 @mbedtls_get_unaligned_uint32(ptr noundef %0) #3 {
  %2 = alloca ptr, align 8
  %3 = alloca i32, align 4
  store ptr %0, ptr %2, align 8, !tbaa !7
  call void @llvm.lifetime.start.p0(i64 4, ptr %3) #8
  %4 = load ptr, ptr %2, align 8, !tbaa !7
  call void @llvm.memcpy.p0.p0.i64(ptr align 4 %3, ptr align 1 %4, i64 4, i1 false)
  %5 = load i32, ptr %3, align 4, !tbaa !3
  call void @llvm.lifetime.end.p0(i64 4, ptr %3) #8
  ret i32 %5
}

; Function Attrs: nounwind uwtable
define hidden i32 @mbedtls_lmots_import_public_key(ptr noundef %0, ptr noundef %1, i64 noundef %2) #0 {
  %4 = alloca i32, align 4
  %5 = alloca ptr, align 8
  %6 = alloca ptr, align 8
  %7 = alloca i64, align 8
  store ptr %0, ptr %5, align 8, !tbaa !7
  store ptr %1, ptr %6, align 8, !tbaa !9
  store i64 %2, ptr %7, align 8, !tbaa !11
  %8 = load i64, ptr %7, align 8, !tbaa !11
  %9 = icmp ult i64 %8, 4
  br i1 %9, label %10, label %11

10:                                               ; preds = %3
  store i32 -17, ptr %4, align 4
  br label %57

11:                                               ; preds = %3
  %12 = load ptr, ptr %6, align 8, !tbaa !9
  %13 = getelementptr inbounds i8, ptr %12, i64 0
  %14 = call i32 @mbedtls_get_unaligned_uint32(ptr noundef %13)
  %15 = call i32 @llvm.bswap.i32(i32 %14)
  %16 = load ptr, ptr %5, align 8, !tbaa !7
  %17 = getelementptr inbounds nuw %struct.mbedtls_lmots_public_t, ptr %16, i32 0, i32 0
  %18 = getelementptr inbounds nuw %struct.mbedtls_lmots_parameters_t, ptr %17, i32 0, i32 2
  store i32 %15, ptr %18, align 4, !tbaa !13
  %19 = load i64, ptr %7, align 8, !tbaa !11
  %20 = load ptr, ptr %5, align 8, !tbaa !7
  %21 = getelementptr inbounds nuw %struct.mbedtls_lmots_public_t, ptr %20, i32 0, i32 0
  %22 = getelementptr inbounds nuw %struct.mbedtls_lmots_parameters_t, ptr %21, i32 0, i32 2
  %23 = load i32, ptr %22, align 4, !tbaa !13
  %24 = icmp eq i32 %23, 4
  %25 = select i1 %24, i32 32, i32 0
  %26 = add i32 24, %25
  %27 = zext i32 %26 to i64
  %28 = icmp ne i64 %19, %27
  br i1 %28, label %29, label %30

29:                                               ; preds = %11
  store i32 -17, ptr %4, align 4
  br label %57

30:                                               ; preds = %11
  %31 = load ptr, ptr %5, align 8, !tbaa !7
  %32 = getelementptr inbounds nuw %struct.mbedtls_lmots_public_t, ptr %31, i32 0, i32 0
  %33 = getelementptr inbounds nuw %struct.mbedtls_lmots_parameters_t, ptr %32, i32 0, i32 0
  %34 = getelementptr inbounds [16 x i8], ptr %33, i64 0, i64 0
  %35 = load ptr, ptr %6, align 8, !tbaa !9
  %36 = getelementptr inbounds nuw i8, ptr %35, i64 4
  call void @llvm.memcpy.p0.p0.i64(ptr align 4 %34, ptr align 1 %36, i64 16, i1 false)
  %37 = load ptr, ptr %5, align 8, !tbaa !7
  %38 = getelementptr inbounds nuw %struct.mbedtls_lmots_public_t, ptr %37, i32 0, i32 0
  %39 = getelementptr inbounds nuw %struct.mbedtls_lmots_parameters_t, ptr %38, i32 0, i32 1
  %40 = getelementptr inbounds [4 x i8], ptr %39, i64 0, i64 0
  %41 = load ptr, ptr %6, align 8, !tbaa !9
  %42 = getelementptr inbounds nuw i8, ptr %41, i64 20
  call void @llvm.memcpy.p0.p0.i64(ptr align 4 %40, ptr align 1 %42, i64 4, i1 false)
  %43 = load ptr, ptr %5, align 8, !tbaa !7
  %44 = getelementptr inbounds nuw %struct.mbedtls_lmots_public_t, ptr %43, i32 0, i32 1
  %45 = getelementptr inbounds [32 x i8], ptr %44, i64 0, i64 0
  %46 = load ptr, ptr %6, align 8, !tbaa !9
  %47 = getelementptr inbounds nuw i8, ptr %46, i64 24
  %48 = load ptr, ptr %5, align 8, !tbaa !7
  %49 = getelementptr inbounds nuw %struct.mbedtls_lmots_public_t, ptr %48, i32 0, i32 0
  %50 = getelementptr inbounds nuw %struct.mbedtls_lmots_parameters_t, ptr %49, i32 0, i32 2
  %51 = load i32, ptr %50, align 4, !tbaa !13
  %52 = icmp eq i32 %51, 4
  %53 = select i1 %52, i32 32, i32 0
  %54 = zext i32 %53 to i64
  call void @llvm.memcpy.p0.p0.i64(ptr align 4 %45, ptr align 1 %47, i64 %54, i1 false)
  %55 = load ptr, ptr %5, align 8, !tbaa !7
  %56 = getelementptr inbounds nuw %struct.mbedtls_lmots_public_t, ptr %55, i32 0, i32 2
  store i8 1, ptr %56, align 4, !tbaa !16
  store i32 0, ptr %4, align 4
  br label %57

57:                                               ; preds = %30, %29, %10
  %58 = load i32, ptr %4, align 4
  ret i32 %58
}