; Function Attrs: mustprogress nofree norecurse nosync nounwind willreturn memory(argmem: readwrite) uwtable
define hidden range(i32 -17, 1) i32 @mbedtls_lmots_import_public_key(ptr noundef writeonly captures(none) %0, ptr noundef readonly captures(none) %1, i64 noundef %2) local_unnamed_addr #5 {
  %4 = icmp ult i64 %2, 4
  br i1 %4, label %19, label %5

5:                                                ; preds = %3
  %.0.copyload.i = load i32, ptr %1, align 1
  %6 = tail call i32 @llvm.bswap.i32(i32 %.0.copyload.i)
  %7 = getelementptr inbounds nuw i8, ptr %0, i64 20
  store i32 %6, ptr %7, align 4, !tbaa !3
  %8 = icmp eq i32 %.0.copyload.i, 67108864
  %9 = select i1 %8, i64 56, i64 24
  %.not = icmp eq i64 %2, %9
  br i1 %.not, label %10, label %19

10:                                               ; preds = %5
  %11 = getelementptr inbounds nuw i8, ptr %1, i64 4
  tail call void @llvm.memcpy.p0.p0.i64(ptr noundef nonnull align 4 dereferenceable(16) %0, ptr noundef nonnull align 1 dereferenceable(16) %11, i64 16, i1 false)
  %12 = getelementptr inbounds nuw i8, ptr %0, i64 16
  %13 = getelementptr inbounds nuw i8, ptr %1, i64 20
  %14 = load i32, ptr %13, align 1
  store i32 %14, ptr %12, align 4
  %15 = getelementptr inbounds nuw i8, ptr %0, i64 24
  %16 = getelementptr inbounds nuw i8, ptr %1, i64 24
  %17 = select i1 %8, i64 32, i64 0
  tail call void @llvm.memcpy.p0.p0.i64(ptr nonnull align 4 %15, ptr nonnull align 1 %16, i64 %17, i1 false)
  %18 = getelementptr inbounds nuw i8, ptr %0, i64 56
  store i8 1, ptr %18, align 4, !tbaa !9
  br label %19

19:                                               ; preds = %5, %3, %10
  %.0 = phi i32 [ 0, %10 ], [ -17, %3 ], [ -17, %5 ]
  ret i32 %.0
}